target datalayout = "e-m:e-p270:32:32-p271:32:32-p272:64:64-i64:64-i128:128-f80:128-n8:16:32:64-S128"
target triple = "x86_64-pc-linux-gnu"

%struct.CVodeMemRec = type { double, ptr, ptr, i32, i32, i32, double, double, ptr, i32, ptr, ptr, i32, ptr, i32, i32, double, double, ptr, i32, i32, i32, ptr, ptr, ptr, i32, i32, ptr, ptr, ptr, i32, double, i32, i32, double, ptr, ptr, i32, ptr, ptr, i32, i32, i32, double, ptr, ptr, [13 x ptr], ptr, ptr, ptr, ptr, ptr, [13 x ptr], ptr, ptr, ptr, ptr, [13 x ptr], ptr, ptr, ptr, ptr, ptr, i32, [13 x ptr], ptr, ptr, ptr, ptr, ptr, i32, double, i32, i32, i32, i32, i32, double, double, double, double, double, double, double, double, [14 x double], [6 x double], [13 x double], double, double, double, double, double, double, double, double, double, double, double, i32, ptr, i32, i64, i32, i32, i32, i32, i32, double, double, double, i64, i64, i64, i64, i64, i64, i64, i64, i64, ptr, i64, i64, ptr, i64, i64, i64, i64, i64, i64, i32, i64, i64, i64, i64, i64, i64, double, double, double, ptr, ptr, ptr, ptr, ptr, i32, i32, i64, double, double, double, i32, double, i32, i32, i32, i32, i32, i32, i32, i32, i32, i32, i32, i32, i32, i32, i32, i32, ptr, ptr, ptr, i32, [6 x [4 x double]], i32, i64, ptr, i32, ptr, ptr, double, double, double, ptr, ptr, ptr, double, double, i32, i32, i64, ptr, i32, i32, ptr, i32 }

; Function Attrs: nounwind uwtable
define internal i32 @cvHandleNFlag(ptr noundef %0, ptr noundef %1, double noundef %2, ptr noundef %3, ptr noundef %4) #0 {
  %6 = alloca i32, align 4
  %7 = alloca ptr, align 8
  %8 = alloca ptr, align 8
  %9 = alloca double, align 8
  %10 = alloca ptr, align 8
  %11 = alloca ptr, align 8
  %12 = alloca i32, align 4
  %13 = alloca i32, align 4
  store ptr %0, ptr %7, align 8, !tbaa !7
  store ptr %1, ptr %8, align 8, !tbaa !316
  store double %2, ptr %9, align 8, !tbaa !102
  store ptr %3, ptr %10, align 8, !tbaa !316
  store ptr %4, ptr %11, align 8, !tbaa !317
  call void @llvm.lifetime.start.p0(i64 4, ptr %12) #8
  %14 = load ptr, ptr %8, align 8, !tbaa !316
  %15 = load i32, ptr %14, align 4, !tbaa !3
  store i32 %15, ptr %12, align 4, !tbaa !3
  %16 = load i32, ptr %12, align 4, !tbaa !3
  %17 = icmp eq i32 %16, 0
  br i1 %17, label %18, label %19

18:                                               ; preds = %5
  store i32 2, ptr %6, align 4
  store i32 1, ptr %13, align 4
  br label %117

19:                                               ; preds = %5
  %20 = load ptr, ptr %11, align 8, !tbaa !317
  %21 = load i64, ptr %20, align 8, !tbaa !115
  %22 = add nsw i64 %21, 1
  store i64 %22, ptr %20, align 8, !tbaa !115
  %23 = load ptr, ptr %7, align 8, !tbaa !7
  %24 = load double, ptr %9, align 8, !tbaa !102
  call void @cvRestore(ptr noundef %23, double noundef %24)
  %25 = load i32, ptr %12, align 4, !tbaa !3
  %26 = icmp eq i32 %25, -6
  br i1 %26, label %27, label %28

27:                                               ; preds = %19
  store i32 -6, ptr %6, align 4
  store i32 1, ptr %13, align 4
  br label %117

28:                                               ; preds = %19
  %29 = load i32, ptr %12, align 4, !tbaa !3
  %30 = icmp eq i32 %29, -7
  br i1 %30, label %31, label %32

31:                                               ; preds = %28
  store i32 -7, ptr %6, align 4
  store i32 1, ptr %13, align 4
  br label %117

32:                                               ; preds = %28
  %33 = load i32, ptr %12, align 4, !tbaa !3
  %34 = icmp eq i32 %33, -8
  br i1 %34, label %35, label %36

35:                                               ; preds = %32
  store i32 -8, ptr %6, align 4
  store i32 1, ptr %13, align 4
  br label %117

36:                                               ; preds = %32
  %37 = load i32, ptr %12, align 4, !tbaa !3
  %38 = icmp eq i32 %37, -31
  br i1 %38, label %39, label %40

39:                                               ; preds = %36
  store i32 -31, ptr %6, align 4
  store i32 1, ptr %13, align 4
  br label %117

40:                                               ; preds = %36
  %41 = load i32, ptr %12, align 4, !tbaa !3
  %42 = icmp eq i32 %41, -41
  br i1 %42, label %43, label %44

43:                                               ; preds = %40
  store i32 -41, ptr %6, align 4
  store i32 1, ptr %13, align 4
  br label %117

44:                                               ; preds = %40
  %45 = load i32, ptr %12, align 4, !tbaa !3
  %46 = icmp eq i32 %45, -51
  br i1 %46, label %47, label %48

47:                                               ; preds = %44
  store i32 -51, ptr %6, align 4
  store i32 1, ptr %13, align 4
  br label %117

48:                                               ; preds = %44
  %49 = load ptr, ptr %10, align 8, !tbaa !316
  %50 = load i32, ptr %49, align 4, !tbaa !3
  %51 = add nsw i32 %50, 1
  store i32 %51, ptr %49, align 4, !tbaa !3
  %52 = load ptr, ptr %7, align 8, !tbaa !7
  %53 = getelementptr inbounds nuw %struct.CVodeMemRec, ptr %52, i32 0, i32 110
  store double 1.000000e+00, ptr %53, align 8, !tbaa !122
  %54 = load ptr, ptr %7, align 8, !tbaa !7
  %55 = getelementptr inbounds nuw %struct.CVodeMemRec, ptr %54, i32 0, i32 78
  %56 = load double, ptr %55, align 8, !tbaa !244
  %57 = call double @SUNRabs(double noundef %56)
  %58 = load ptr, ptr %7, align 8, !tbaa !7
  %59 = getelementptr inbounds nuw %struct.CVodeMemRec, ptr %58, i32 0, i32 108
  %60 = load double, ptr %59, align 8, !tbaa !38
  %61 = fmul double %60, 0x3FF000010C6F7A0B
  %62 = fcmp ole double %57, %61
  br i1 %62, label %70, label %63

63:                                               ; preds = %48
  %64 = load ptr, ptr %10, align 8, !tbaa !316
  %65 = load i32, ptr %64, align 4, !tbaa !3
  %66 = load ptr, ptr %7, align 8, !tbaa !7
  %67 = getelementptr inbounds nuw %struct.CVodeMemRec, ptr %66, i32 0, i32 107
  %68 = load i32, ptr %67, align 8, !tbaa !43
  %69 = icmp eq i32 %65, %68
  br i1 %69, label %70, label %91

70:                                               ; preds = %63, %48
  %71 = load i32, ptr %12, align 4, !tbaa !3
  %72 = icmp eq i32 %71, 4
  br i1 %72, label %73, label %74

73:                                               ; preds = %70
  store i32 -4, ptr %6, align 4
  store i32 1, ptr %13, align 4
  br label %117

74:                                               ; preds = %70
  %75 = load i32, ptr %12, align 4, !tbaa !3
  %76 = icmp eq i32 %75, 9
  br i1 %76, label %77, label %78

77:                                               ; preds = %74
  store i32 -10, ptr %6, align 4
  store i32 1, ptr %13, align 4
  br label %117

78:                                               ; preds = %74
  %79 = load i32, ptr %12, align 4, !tbaa !3
  %80 = icmp eq i32 %79, 11
  br i1 %80, label %81, label %82

81:                                               ; preds = %78
  store i32 -33, ptr %6, align 4
  store i32 1, ptr %13, align 4
  br label %117

82:                                               ; preds = %78
  %83 = load i32, ptr %12, align 4, !tbaa !3
  %84 = icmp eq i32 %83, 12
  br i1 %84, label %85, label %86

85:                                               ; preds = %82
  store i32 -43, ptr %6, align 4
  store i32 1, ptr %13, align 4
  br label %117

86:                                               ; preds = %82
  %87 = load i32, ptr %12, align 4, !tbaa !3
  %88 = icmp eq i32 %87, 13
  br i1 %88, label %89, label %90

89:                                               ; preds = %86
  store i32 -53, ptr %6, align 4
  store i32 1, ptr %13, align 4
  br label %117

90:                                               ; preds = %86
  br label %91

91:                                               ; preds = %90, %63
  %92 = load ptr, ptr %7, align 8, !tbaa !7
  %93 = getelementptr inbounds nuw %struct.CVodeMemRec, ptr %92, i32 0, i32 108
  %94 = load double, ptr %93, align 8, !tbaa !38
  %95 = load ptr, ptr %7, align 8, !tbaa !7
  %96 = getelementptr inbounds nuw %struct.CVodeMemRec, ptr %95, i32 0, i32 78
  %97 = load double, ptr %96, align 8, !tbaa !244
  %98 = call double @SUNRabs(double noundef %97)
  %99 = fdiv double %94, %98
  %100 = fcmp ogt double 2.500000e-01, %99
  br i1 %100, label %101, label %102

101:                                              ; preds = %91
  br label %111

102:                                              ; preds = %91
  %103 = load ptr, ptr %7, align 8, !tbaa !7
  %104 = getelementptr inbounds nuw %struct.CVodeMemRec, ptr %103, i32 0, i32 108
  %105 = load double, ptr %104, align 8, !tbaa !38
  %106 = load ptr, ptr %7, align 8, !tbaa !7
  %107 = getelementptr inbounds nuw %struct.CVodeMemRec, ptr %106, i32 0, i32 78
  %108 = load double, ptr %107, align 8, !tbaa !244
  %109 = call double @SUNRabs(double noundef %108)
  %110 = fdiv double %105, %109
  br label %111

111:                                              ; preds = %102, %101
  %112 = phi double [ 2.500000e-01, %101 ], [ %110, %102 ]
  %113 = load ptr, ptr %7, align 8, !tbaa !7
  %114 = getelementptr inbounds nuw %struct.CVodeMemRec, ptr %113, i32 0, i32 81
  store double %112, ptr %114, align 8, !tbaa !250
  %115 = load ptr, ptr %8, align 8, !tbaa !316
  store i32 7, ptr %115, align 4, !tbaa !3
  %116 = load ptr, ptr %7, align 8, !tbaa !7
  call void @cvRescale(ptr noundef %116)
  store i32 3, ptr %6, align 4
  store i32 1, ptr %13, align 4
  br label %117

117:                                              ; preds = %111, %89, %85, %81, %77, %73, %47, %43, %39, %35, %31, %27, %18
  call void @llvm.lifetime.end.p0(i64 4, ptr %12) #8
  %118 = load i32, ptr %6, align 4
  ret i32 %118
}