; Function Attrs: nounwind uwtable
define internal fastcc range(i32 -53, 4) i32 @cvHandleNFlag(ptr noundef nonnull captures(none) %0, ptr noundef nonnull captures(none) %1, double noundef %2, ptr noundef captures(none) %3, ptr noundef captures(none) %4) unnamed_addr #0 {
  %6 = load i32, ptr %1, align 4, !tbaa !51
  %7 = icmp eq i32 %6, 0
  br i1 %7, label %43, label %8

8:                                                ; preds = %5
  %9 = load i64, ptr %4, align 8, !tbaa !76
  %10 = add nsw i64 %9, 1
  store i64 %10, ptr %4, align 8, !tbaa !76
  tail call fastcc void @cvRestore(ptr noundef %0, double noundef %2)
  switch i32 %6, label %11 [
    i32 -6, label %43
    i32 -7, label %43
    i32 -8, label %43
    i32 -31, label %43
    i32 -41, label %43
    i32 -51, label %43
  ]

11:                                               ; preds = %8
  %12 = load i32, ptr %3, align 4, !tbaa !51
  %13 = add nsw i32 %12, 1
  store i32 %13, ptr %3, align 4, !tbaa !51
  %14 = getelementptr inbounds nuw i8, ptr %0, i64 1424
  store double 1.000000e+00, ptr %14, align 8, !tbaa !88
  %15 = getelementptr inbounds nuw i8, ptr %0, i64 944
  %16 = load double, ptr %15, align 8, !tbaa !222
  %17 = tail call double @SUNRabs(double noundef %16) #13
  %18 = getelementptr inbounds nuw i8, ptr %0, i64 1408
  %19 = load double, ptr %18, align 8, !tbaa !224
  %20 = fmul double %19, 0x3FF000010C6F7A0B
  %21 = fcmp ugt double %17, %20
  br i1 %21, label %22, label %27

22:                                               ; preds = %11
  %23 = load i32, ptr %3, align 4, !tbaa !51
  %24 = getelementptr inbounds nuw i8, ptr %0, i64 1400
  %25 = load i32, ptr %24, align 8, !tbaa !29
  %26 = icmp eq i32 %23, %25
  br i1 %26, label %27, label %29

27:                                               ; preds = %22, %11
  %switch.tableidx = add i32 %6, -4
  %28 = icmp ult i32 %switch.tableidx, 10
  br i1 %28, label %switch.hole_check, label %29

29:                                               ; preds = %switch.hole_check, %27, %22
  %30 = load double, ptr %15, align 8, !tbaa !222
  %31 = tail call double @SUNRabs(double noundef %30) #13
  %32 = fdiv double %19, %31
  %33 = fcmp olt double %32, 2.500000e-01
  br i1 %33, label %39, label %34

34:                                               ; preds = %29
  %35 = load double, ptr %18, align 8, !tbaa !224
  %36 = load double, ptr %15, align 8, !tbaa !222
  %37 = tail call double @SUNRabs(double noundef %36) #13
  %38 = fdiv double %35, %37
  br label %39

39:                                               ; preds = %29, %34
  %40 = phi double [ %38, %34 ], [ 2.500000e-01, %29 ]
  %41 = getelementptr inbounds nuw i8, ptr %0, i64 968
  store double %40, ptr %41, align 8, !tbaa !231
  store i32 7, ptr %1, align 4, !tbaa !51
  tail call fastcc void @cvRescale(ptr noundef %0)
  br label %43

switch.hole_check:                                ; preds = %27
  %switch.maskindex = trunc nuw i32 %switch.tableidx to i16
  %switch.shifted = lshr i16 929, %switch.maskindex
  %switch.lobit = trunc i16 %switch.shifted to i1
  br i1 %switch.lobit, label %switch.lookup, label %29

switch.lookup:                                    ; preds = %switch.hole_check
  %42 = zext nneg i32 %switch.tableidx to i64
  %switch.gep = getelementptr inbounds nuw [10 x i32], ptr @switch.table.cvHandleNFlag, i64 0, i64 %42
  %switch.load = load i32, ptr %switch.gep, align 4
  br label %43

43:                                               ; preds = %switch.lookup, %8, %8, %8, %8, %8, %8, %5, %39
  %.0 = phi i32 [ 3, %39 ], [ 2, %5 ], [ %6, %8 ], [ %6, %8 ], [ %6, %8 ], [ %6, %8 ], [ %6, %8 ], [ %6, %8 ], [ %switch.load, %switch.lookup ]
  ret i32 %.0
}